(lp0
(lp1
I149933
aI151224
aa(lp2
I151968
aI152701
aa(lp3
I152749
aI153490
aa(lp4
I153533
aI154264
aa(lp5
I154295
aI159270
aa(lp6
I159298
aI161534
aa(lp7
I166256
aI168515
aa(lp8
I168744
aI169476
aa(lp9
I171566
aI172298
aa(lp10
I196076
aI196799
aa(lp11
I197196
aI197936
aa(lp12
I214524
aI215838
aa(lp13
I215868
aI216599
aa(lp14
I216631
aI217367
aa.