(lp0
(lp1
I149930
aI151699
aa(lp2
I151782
aI154384
aa(lp3
I154483
aI156648
aa(lp4
I156759
aI157695
aa(lp5
I157788
aI159948
aa(lp6
I160680
aI161615
aa(lp7
I162334
aI165942
aa(lp8
I168335
aI169262
aa(lp9
I169574
aI170284
aa(lp10
I170624
aI172375
aa(lp11
I172484
aI173397
aa(lp12
I174969
aI176093
aa(lp13
I176618
aI177335
aa(lp14
I178272
aI178986
aa(lp15
I181168
aI181880
aa(lp16
I182619
aI183732
aa(lp17
I184065
aI184779
aa(lp18
I185518
aI187045
aa(lp19
I187170
aI187876
aa(lp20
I188818
aI189528
aa(lp21
I190470
aI191177
aa(lp22
I191303
aI192223
aa(lp23
I194408
aI195328
aa(lp24
I196069
aI196979
aa(lp25
I201651
aI202360
aa(lp26
I204959
aI205869
aa(lp27
I220658
aI221380
aa(lp28
I223351
aI224482
aa.