(lp0
(lp1
I150126
aI161274
aa(lp2
I162251
aI163709
aa(lp3
I164376
aI165126
aa(lp4
I166093
aI166841
aa(lp5
I167550
aI168300
aa(lp6
I169351
aI170823
aa(lp7
I189910
aI191024
aa(lp8
I192446
aI193193
aa(lp9
I201254
aI202004
aa(lp10
I204441
aI205901
aa(lp11
I206562
aI207310
aa(lp12
I207650
aI208404
aa(lp13
I216216
aI217654
aa.