(lp0
(lp1
I150068
aI158133
aa(lp2
I158196
aI161583
aa(lp3
I161847
aI163003
aa(lp4
I163674
aI164825
aa(lp5
I165677
aI166842
aa(lp6
I167703
aI168887
aa(lp7
I169560
aI170686
aa(lp8
I171369
aI172089
aa(lp9
I172606
aI173344
aa(lp10
I173605
aI174779
aa(lp11
I175853
aI176593
aa(lp12
I177073
aI178013
aa(lp13
I183755
aI184495
aa(lp14
I187817
aI189378
aa(lp15
I190000
aI190772
aa(lp16
I213356
aI214139
aa(lp17
I215592
aI216377
aa(lp18
I222896
aI223687
aa.