(lp0
(lp1
I149860
aI154298
aa(lp2
I155626
aI156356
aa(lp3
I157822
aI158554
aa(lp4
I160029
aI160752
aa(lp5
I188882
aI189610
aa(lp6
I190545
aI195999
aa(lp7
I196082
aI197094
aa(lp8
I197750
aI199584
aa(lp9
I200499
aI201234
aa(lp10
I202703
aI203985
aa(lp11
I204078
aI205080
aa(lp12
I206288
aI209518
aa(lp13
I210447
aI211182
aa(lp14
I213796
aI214532
aa(lp15
I215733
aI217019
aa(lp16
I219350
aI220078
aa(lp17
I221828
aI222563
aa(lp18
I223205
aI224485
aa.