(lp0
(lp1
I150083
aI157533
aa(lp2
I157736
aI164103
aa(lp3
I164348
aI165105
aa(lp4
I177465
aI178216
aa(lp5
I178369
aI179121
aa(lp6
I181723
aI182465
aa(lp7
I188095
aI188849
aa(lp8
I188895
aI190185
aa(lp9
I190286
aI191036
aa(lp10
I192170
aI192928
aa(lp11
I193033
aI194376
aa(lp12
I200847
aI201612
aa(lp13
I205300
aI206052
aa(lp14
I208175
aI208933
aa(lp15
I210613
aI211365
aa(lp16
I212475
aI213244
aa(lp17
I213383
aI214146
aa(lp18
I214287
aI215368
aa.